; Function Attrs: mustprogress uwtable
define hidden noundef ptr @_ZN5array6solver5cloneERN3euf6solverE(ptr noundef nonnull readonly align 8 captures(none) dereferenceable(536) %0, ptr noundef nonnull align 8 dereferenceable(8456) %1) unnamed_addr #3 align 2 {
  %3 = tail call noalias noundef ptr @_ZN6memory8allocateEm(i64 noundef 536)
  %4 = getelementptr inbounds nuw i8, ptr %0, i64 12
  %5 = load i32, ptr %4, align 4, !tbaa !172
  tail call void @_ZN5array6solverC2ERN3euf6solverEi(ptr noundef nonnull align 8 dereferenceable(536) %3, ptr noundef nonnull align 8 dereferenceable(8456) %1, i32 noundef %5)
  %6 = getelementptr inbounds nuw i8, ptr %0, i64 88
  %7 = getelementptr inbounds nuw i8, ptr %0, i64 80
  br label %8

8:                                                ; preds = %17, %2
  %indvars.iv = phi i64 [ %indvars.iv.next, %17 ], [ 0, %2 ]
  %9 = load ptr, ptr %6, align 8, !tbaa !135
  %10 = icmp eq ptr %9, null
  br i1 %10, label %_ZNK3euf13th_euf_solver12get_num_varsEv.exit, label %11

11:                                               ; preds = %8
  %12 = getelementptr inbounds i8, ptr %9, i64 -4
  %13 = load i32, ptr %12, align 4, !tbaa !140
  %14 = zext i32 %13 to i64
  br label %_ZNK3euf13th_euf_solver12get_num_varsEv.exit

_ZNK3euf13th_euf_solver12get_num_varsEv.exit:     ; preds = %8, %11
  %.0.i.i = phi i64 [ %14, %11 ], [ 0, %8 ]
  %15 = icmp samesign ult i64 %indvars.iv, %.0.i.i
  br i1 %15, label %17, label %16

16:                                               ; preds = %_ZNK3euf13th_euf_solver12get_num_varsEv.exit
  ret ptr %3

17:                                               ; preds = %_ZNK3euf13th_euf_solver12get_num_varsEv.exit
  %18 = load ptr, ptr %7, align 8, !tbaa !173
  %19 = getelementptr inbounds nuw ptr, ptr %9, i64 %indvars.iv
  %20 = load ptr, ptr %19, align 8, !tbaa !174
  %21 = tail call noundef ptr @_ZN3euf6solver4copyERS0_PNS_5enodeE(ptr noundef nonnull align 8 dereferenceable(8456) %18, ptr noundef nonnull align 8 dereferenceable(8456) %1, ptr noundef %20)
  %22 = load ptr, ptr %3, align 8, !tbaa !3
  %23 = getelementptr inbounds nuw i8, ptr %22, i64 528
  %24 = load ptr, ptr %23, align 8
  %25 = tail call noundef i32 %24(ptr noundef nonnull align 8 dereferenceable(536) %3, ptr noundef %21)
  %indvars.iv.next = add nuw nsw i64 %indvars.iv, 1
  br label %8, !llvm.loop !176
}